#include <math.h>
#include <stdio.h>
#include <stdlib.h>
#include <string.h>

int main()
{
	int i,n,math,chinese,std_num;
	int first,second,third;
	int score[3]={-1,-1,-1};
	scanf("%d",&n);
	first=0;second=0;third=0;
    for(i=0;i<n;i++){
        scanf("%d",&std_num);       
        scanf("%d",&chinese);
        scanf("%d",&math);         
        if (chinese+math>score[0]){
           third =second;
           second=first;
           score[2]=score[1];
           score[1]=score[0];
           first = std_num;
           score[0]=chinese+math;
        }
        else if(chinese+math>score[1]){
                third=second;
                score[2]=score[1];
                second=std_num;
                score[1]=math+chinese;
             }
        else if(chinese+math>score[2]){
                third=std_num;
                score[2]=math+chinese;
             }
    } 
    printf("%d %d\n",first,score[0]);
    printf("%d %d\n",second,score[1]);
    printf("%d %d\n",third,score[2]);
    return 0;
}
