; ModuleID = '14/630.c'
source_filename = "14/630.c"
target datalayout = "e-m:e-p270:32:32-p271:32:32-p272:64:64-i64:64-f80:128-n8:16:32:64-S128"
target triple = "x86_64-pc-linux-gnu"

@__const.main.score = private unnamed_addr constant [3 x i32] [i32 -1, i32 -1, i32 -1], align 4
@.str = private unnamed_addr constant [3 x i8] c"%d\00", align 1
@.str.1 = private unnamed_addr constant [7 x i8] c"%d %d\0A\00", align 1

; Function Attrs: noinline nounwind uwtable
define dso_local i32 @main() #0 {
  %1 = alloca i32, align 4
  %2 = alloca i32, align 4
  %3 = alloca i32, align 4
  %4 = alloca i32, align 4
  %5 = alloca i32, align 4
  %6 = alloca i32, align 4
  %7 = alloca i32, align 4
  %8 = alloca i32, align 4
  %9 = alloca i32, align 4
  %10 = alloca [3 x i32], align 4
  store i32 0, i32* %1, align 4
  %11 = bitcast [3 x i32]* %10 to i8*
  call void @llvm.memcpy.p0i8.p0i8.i64(i8* align 4 %11, i8* align 4 bitcast ([3 x i32]* @__const.main.score to i8*), i64 12, i1 false)
  %12 = call i32 (i8*, ...) @__isoc99_scanf(i8* getelementptr inbounds ([3 x i8], [3 x i8]* @.str, i64 0, i64 0), i32* %3)
  store i32 0, i32* %7, align 4
  store i32 0, i32* %8, align 4
  store i32 0, i32* %9, align 4
  store i32 0, i32* %2, align 4
  br label %13

13:                                               ; preds = %74, %0
  %14 = load i32, i32* %2, align 4
  %15 = load i32, i32* %3, align 4
  %16 = icmp slt i32 %14, %15
  br i1 %16, label %17, label %77

17:                                               ; preds = %13
  %18 = call i32 (i8*, ...) @__isoc99_scanf(i8* getelementptr inbounds ([3 x i8], [3 x i8]* @.str, i64 0, i64 0), i32* %6)
  %19 = call i32 (i8*, ...) @__isoc99_scanf(i8* getelementptr inbounds ([3 x i8], [3 x i8]* @.str, i64 0, i64 0), i32* %5)
  %20 = call i32 (i8*, ...) @__isoc99_scanf(i8* getelementptr inbounds ([3 x i8], [3 x i8]* @.str, i64 0, i64 0), i32* %4)
  %21 = load i32, i32* %5, align 4
  %22 = load i32, i32* %4, align 4
  %23 = add nsw i32 %21, %22
  %24 = getelementptr inbounds [3 x i32], [3 x i32]* %10, i64 0, i64 0
  %25 = load i32, i32* %24, align 4
  %26 = icmp sgt i32 %23, %25
  br i1 %26, label %27, label %41

27:                                               ; preds = %17
  %28 = load i32, i32* %8, align 4
  store i32 %28, i32* %9, align 4
  %29 = load i32, i32* %7, align 4
  store i32 %29, i32* %8, align 4
  %30 = getelementptr inbounds [3 x i32], [3 x i32]* %10, i64 0, i64 1
  %31 = load i32, i32* %30, align 4
  %32 = getelementptr inbounds [3 x i32], [3 x i32]* %10, i64 0, i64 2
  store i32 %31, i32* %32, align 4
  %33 = getelementptr inbounds [3 x i32], [3 x i32]* %10, i64 0, i64 0
  %34 = load i32, i32* %33, align 4
  %35 = getelementptr inbounds [3 x i32], [3 x i32]* %10, i64 0, i64 1
  store i32 %34, i32* %35, align 4
  %36 = load i32, i32* %6, align 4
  store i32 %36, i32* %7, align 4
  %37 = load i32, i32* %5, align 4
  %38 = load i32, i32* %4, align 4
  %39 = add nsw i32 %37, %38
  %40 = getelementptr inbounds [3 x i32], [3 x i32]* %10, i64 0, i64 0
  store i32 %39, i32* %40, align 4
  br label %73

41:                                               ; preds = %17
  %42 = load i32, i32* %5, align 4
  %43 = load i32, i32* %4, align 4
  %44 = add nsw i32 %42, %43
  %45 = getelementptr inbounds [3 x i32], [3 x i32]* %10, i64 0, i64 1
  %46 = load i32, i32* %45, align 4
  %47 = icmp sgt i32 %44, %46
  br i1 %47, label %48, label %58

48:                                               ; preds = %41
  %49 = load i32, i32* %8, align 4
  store i32 %49, i32* %9, align 4
  %50 = getelementptr inbounds [3 x i32], [3 x i32]* %10, i64 0, i64 1
  %51 = load i32, i32* %50, align 4
  %52 = getelementptr inbounds [3 x i32], [3 x i32]* %10, i64 0, i64 2
  store i32 %51, i32* %52, align 4
  %53 = load i32, i32* %6, align 4
  store i32 %53, i32* %8, align 4
  %54 = load i32, i32* %4, align 4
  %55 = load i32, i32* %5, align 4
  %56 = add nsw i32 %54, %55
  %57 = getelementptr inbounds [3 x i32], [3 x i32]* %10, i64 0, i64 1
  store i32 %56, i32* %57, align 4
  br label %72

58:                                               ; preds = %41
  %59 = load i32, i32* %5, align 4
  %60 = load i32, i32* %4, align 4
  %61 = add nsw i32 %59, %60
  %62 = getelementptr inbounds [3 x i32], [3 x i32]* %10, i64 0, i64 2
  %63 = load i32, i32* %62, align 4
  %64 = icmp sgt i32 %61, %63
  br i1 %64, label %65, label %71

65:                                               ; preds = %58
  %66 = load i32, i32* %6, align 4
  store i32 %66, i32* %9, align 4
  %67 = load i32, i32* %4, align 4
  %68 = load i32, i32* %5, align 4
  %69 = add nsw i32 %67, %68
  %70 = getelementptr inbounds [3 x i32], [3 x i32]* %10, i64 0, i64 2
  store i32 %69, i32* %70, align 4
  br label %71

71:                                               ; preds = %65, %58
  br label %72

72:                                               ; preds = %71, %48
  br label %73

73:                                               ; preds = %72, %27
  br label %74

74:                                               ; preds = %73
  %75 = load i32, i32* %2, align 4
  %76 = add nsw i32 %75, 1
  store i32 %76, i32* %2, align 4
  br label %13

77:                                               ; preds = %13
  %78 = load i32, i32* %7, align 4
  %79 = getelementptr inbounds [3 x i32], [3 x i32]* %10, i64 0, i64 0
  %80 = load i32, i32* %79, align 4
  %81 = call i32 (i8*, ...) @printf(i8* getelementptr inbounds ([7 x i8], [7 x i8]* @.str.1, i64 0, i64 0), i32 %78, i32 %80)
  %82 = load i32, i32* %8, align 4
  %83 = getelementptr inbounds [3 x i32], [3 x i32]* %10, i64 0, i64 1
  %84 = load i32, i32* %83, align 4
  %85 = call i32 (i8*, ...) @printf(i8* getelementptr inbounds ([7 x i8], [7 x i8]* @.str.1, i64 0, i64 0), i32 %82, i32 %84)
  %86 = load i32, i32* %9, align 4
  %87 = getelementptr inbounds [3 x i32], [3 x i32]* %10, i64 0, i64 2
  %88 = load i32, i32* %87, align 4
  %89 = call i32 (i8*, ...) @printf(i8* getelementptr inbounds ([7 x i8], [7 x i8]* @.str.1, i64 0, i64 0), i32 %86, i32 %88)
  ret i32 0
}

; Function Attrs: argmemonly nounwind willreturn
declare void @llvm.memcpy.p0i8.p0i8.i64(i8* noalias nocapture writeonly, i8* noalias nocapture readonly, i64, i1 immarg) #1

declare dso_local i32 @__isoc99_scanf(i8*, ...) #2

declare dso_local i32 @printf(i8*, ...) #2


!llvm.module.flags = !{!0}
!llvm.ident = !{!1}

!0 = !{i32 1, !"wchar_size", i32 4}
!1 = !{!"clang version 10.0.0-4ubuntu1 "}
