; ModuleID = 'source-C-CXX/13/630.c'
source_filename = "source-C-CXX/13/630.c"
target datalayout = "e-m:e-p270:32:32-p271:32:32-p272:64:64-i64:64-f80:128-n8:16:32:64-S128"
target triple = "x86_64-pc-linux-gnu"

@.str = private unnamed_addr constant [3 x i8] c"%d\00", align 1
@.str.1 = private unnamed_addr constant [7 x i8] c"%d %d\0A\00", align 1

; Function Attrs: nofree nounwind sspstrong uwtable
define dso_local i32 @main() local_unnamed_addr #0 {
  %1 = alloca i32, align 4
  %2 = alloca i32, align 4
  %3 = alloca i32, align 4
  %4 = alloca i32, align 4
  %5 = bitcast i32* %1 to i8*
  call void @llvm.lifetime.start.p0i8(i64 4, i8* nonnull %5) #3
  %6 = bitcast i32* %2 to i8*
  call void @llvm.lifetime.start.p0i8(i64 4, i8* nonnull %6) #3
  %7 = bitcast i32* %3 to i8*
  call void @llvm.lifetime.start.p0i8(i64 4, i8* nonnull %7) #3
  %8 = bitcast i32* %4 to i8*
  call void @llvm.lifetime.start.p0i8(i64 4, i8* nonnull %8) #3
  %9 = call i32 (i8*, ...) @__isoc99_scanf(i8* getelementptr inbounds ([3 x i8], [3 x i8]* @.str, i64 0, i64 0), i32* nonnull %1)
  %10 = load i32, i32* %1, align 4, !tbaa !5
  %11 = icmp sgt i32 %10, 0
  br i1 %11, label %12, label %48

12:                                               ; preds = %0, %38
  %13 = phi i32 [ %44, %38 ], [ -1, %0 ]
  %14 = phi i32 [ %43, %38 ], [ -1, %0 ]
  %15 = phi i32 [ %42, %38 ], [ -1, %0 ]
  %16 = phi i32 [ %41, %38 ], [ 0, %0 ]
  %17 = phi i32 [ %40, %38 ], [ 0, %0 ]
  %18 = phi i32 [ %39, %38 ], [ 0, %0 ]
  %19 = phi i32 [ %45, %38 ], [ 0, %0 ]
  %20 = call i32 (i8*, ...) @__isoc99_scanf(i8* getelementptr inbounds ([3 x i8], [3 x i8]* @.str, i64 0, i64 0), i32* nonnull %4)
  %21 = call i32 (i8*, ...) @__isoc99_scanf(i8* getelementptr inbounds ([3 x i8], [3 x i8]* @.str, i64 0, i64 0), i32* nonnull %3)
  %22 = call i32 (i8*, ...) @__isoc99_scanf(i8* getelementptr inbounds ([3 x i8], [3 x i8]* @.str, i64 0, i64 0), i32* nonnull %2)
  %23 = load i32, i32* %3, align 4, !tbaa !5
  %24 = load i32, i32* %2, align 4, !tbaa !5
  %25 = add nsw i32 %24, %23
  %26 = icmp sgt i32 %25, %13
  br i1 %26, label %27, label %29

27:                                               ; preds = %12
  %28 = load i32, i32* %4, align 4, !tbaa !5
  br label %38

29:                                               ; preds = %12
  %30 = icmp sgt i32 %25, %14
  br i1 %30, label %31, label %33

31:                                               ; preds = %29
  %32 = load i32, i32* %4, align 4, !tbaa !5
  br label %38

33:                                               ; preds = %29
  %34 = icmp sgt i32 %25, %15
  %35 = load i32, i32* %4, align 4
  %36 = select i1 %34, i32 %35, i32 %16
  %37 = select i1 %34, i32 %25, i32 %15
  br label %38

38:                                               ; preds = %33, %27, %31
  %39 = phi i32 [ %28, %27 ], [ %18, %31 ], [ %18, %33 ]
  %40 = phi i32 [ %18, %27 ], [ %32, %31 ], [ %17, %33 ]
  %41 = phi i32 [ %17, %27 ], [ %17, %31 ], [ %36, %33 ]
  %42 = phi i32 [ %14, %27 ], [ %14, %31 ], [ %37, %33 ]
  %43 = phi i32 [ %13, %27 ], [ %25, %31 ], [ %14, %33 ]
  %44 = phi i32 [ %25, %27 ], [ %13, %31 ], [ %13, %33 ]
  %45 = add nuw nsw i32 %19, 1
  %46 = load i32, i32* %1, align 4, !tbaa !5
  %47 = icmp slt i32 %45, %46
  br i1 %47, label %12, label %48, !llvm.loop !9

48:                                               ; preds = %38, %0
  %49 = phi i32 [ 0, %0 ], [ %39, %38 ]
  %50 = phi i32 [ 0, %0 ], [ %40, %38 ]
  %51 = phi i32 [ 0, %0 ], [ %41, %38 ]
  %52 = phi i32 [ -1, %0 ], [ %42, %38 ]
  %53 = phi i32 [ -1, %0 ], [ %43, %38 ]
  %54 = phi i32 [ -1, %0 ], [ %44, %38 ]
  %55 = call i32 (i8*, ...) @printf(i8* nonnull dereferenceable(1) getelementptr inbounds ([7 x i8], [7 x i8]* @.str.1, i64 0, i64 0), i32 %49, i32 %54)
  %56 = call i32 (i8*, ...) @printf(i8* nonnull dereferenceable(1) getelementptr inbounds ([7 x i8], [7 x i8]* @.str.1, i64 0, i64 0), i32 %50, i32 %53)
  %57 = call i32 (i8*, ...) @printf(i8* nonnull dereferenceable(1) getelementptr inbounds ([7 x i8], [7 x i8]* @.str.1, i64 0, i64 0), i32 %51, i32 %52)
  call void @llvm.lifetime.end.p0i8(i64 4, i8* nonnull %8) #3
  call void @llvm.lifetime.end.p0i8(i64 4, i8* nonnull %7) #3
  call void @llvm.lifetime.end.p0i8(i64 4, i8* nonnull %6) #3
  call void @llvm.lifetime.end.p0i8(i64 4, i8* nonnull %5) #3
  ret i32 0
}

; Function Attrs: argmemonly mustprogress nofree nosync nounwind willreturn
declare void @llvm.lifetime.start.p0i8(i64 immarg, i8* nocapture) #1

; Function Attrs: nofree nounwind
declare noundef i32 @__isoc99_scanf(i8* nocapture noundef readonly, ...) local_unnamed_addr #2

; Function Attrs: nofree nounwind
declare noundef i32 @printf(i8* nocapture noundef readonly, ...) local_unnamed_addr #2

; Function Attrs: argmemonly mustprogress nofree nosync nounwind willreturn
declare void @llvm.lifetime.end.p0i8(i64 immarg, i8* nocapture) #1


!llvm.module.flags = !{!0, !1, !2, !3}
!llvm.ident = !{!4}

!0 = !{i32 1, !"wchar_size", i32 4}
!1 = !{i32 7, !"PIC Level", i32 2}
!2 = !{i32 7, !"PIE Level", i32 2}
!3 = !{i32 7, !"uwtable", i32 1}
!4 = !{!"clang version 13.0.0"}
!5 = !{!6, !6, i64 0}
!6 = !{!"int", !7, i64 0}
!7 = !{!"omnipotent char", !8, i64 0}
!8 = !{!"Simple C/C++ TBAA"}
!9 = distinct !{!9, !10}
!10 = !{!"llvm.loop.mustprogress"}
